target datalayout = "e-m:e-p270:32:32-p271:32:32-p272:64:64-i64:64-i128:128-f80:128-n8:16:32:64-S128"
target triple = "x86_64-pc-linux-gnu"

; Function Attrs: alwaysinline nounwind uwtable
define internal zeroext i1 @SDL_size_add_check_overflow_builtin(i64 noundef %0, i64 noundef %1, ptr noundef %2) #4 {
  %4 = alloca i64, align 8
  %5 = alloca i64, align 8
  %6 = alloca ptr, align 8
  store i64 %0, ptr %4, align 8
  store i64 %1, ptr %5, align 8
  store ptr %2, ptr %6, align 8
  %7 = load i64, ptr %4, align 8
  %8 = load i64, ptr %5, align 8
  %9 = load ptr, ptr %6, align 8
  %10 = call { i64, i1 } @llvm.uadd.with.overflow.i64(i64 %7, i64 %8)
  %11 = extractvalue { i64, i1 } %10, 1
  %12 = extractvalue { i64, i1 } %10, 0
  store i64 %12, ptr %9, align 8
  %13 = zext i1 %11 to i32
  %14 = icmp eq i32 %13, 0
  ret i1 %14
}

; Function Attrs: nounwind uwtable
define hidden noalias ptr @SDL_aligned_alloc_REAL(i64 noundef %0, i64 noundef %1) #0 {
  %3 = alloca i64, align 8
  %4 = alloca i64, align 8
  %5 = alloca i64, align 8
  %6 = alloca ptr, align 8
  %7 = alloca i64, align 8
  %8 = alloca ptr, align 8
  store i64 %0, ptr %3, align 8
  store i64 %1, ptr %4, align 8
  call void @llvm.lifetime.start.p0(i64 8, ptr %5) #8
  call void @llvm.lifetime.start.p0(i64 8, ptr %6) #8
  store ptr null, ptr %6, align 8
  call void @llvm.lifetime.start.p0(i64 8, ptr %7) #8
  %9 = load i64, ptr %4, align 8
  store i64 %9, ptr %7, align 8
  %10 = load i64, ptr %3, align 8
  %11 = icmp ult i64 %10, 8
  br i1 %11, label %12, label %13

12:                                               ; preds = %2
  store i64 8, ptr %3, align 8
  br label %13

13:                                               ; preds = %12, %2
  %14 = load i64, ptr %3, align 8
  %15 = load i64, ptr %4, align 8
  %16 = load i64, ptr %3, align 8
  %17 = urem i64 %15, %16
  %18 = sub i64 %14, %17
  store i64 %18, ptr %5, align 8
  %19 = load i64, ptr %4, align 8
  %20 = load i64, ptr %3, align 8
  %21 = call zeroext i1 @SDL_size_add_check_overflow_builtin(i64 noundef %19, i64 noundef %20, ptr noundef %4)
  br i1 %21, label %22, label %56

22:                                               ; preds = %13
  %23 = load i64, ptr %4, align 8
  %24 = call zeroext i1 @SDL_size_add_check_overflow_builtin(i64 noundef %23, i64 noundef 8, ptr noundef %4)
  br i1 %24, label %25, label %56

25:                                               ; preds = %22
  %26 = load i64, ptr %4, align 8
  %27 = load i64, ptr %5, align 8
  %28 = call zeroext i1 @SDL_size_add_check_overflow_builtin(i64 noundef %26, i64 noundef %27, ptr noundef %4)
  br i1 %28, label %29, label %56

29:                                               ; preds = %25
  call void @llvm.lifetime.start.p0(i64 8, ptr %8) #8
  %30 = load i64, ptr %4, align 8
  %31 = call noalias ptr @SDL_malloc_REAL(i64 noundef %30)
  store ptr %31, ptr %8, align 8
  %32 = load ptr, ptr %8, align 8
  %33 = icmp ne ptr %32, null
  br i1 %33, label %34, label %55

34:                                               ; preds = %29
  %35 = load ptr, ptr %8, align 8
  %36 = getelementptr inbounds nuw i8, ptr %35, i64 8
  store ptr %36, ptr %6, align 8
  %37 = load i64, ptr %3, align 8
  %38 = load ptr, ptr %6, align 8
  %39 = ptrtoint ptr %38 to i64
  %40 = load i64, ptr %3, align 8
  %41 = urem i64 %39, %40
  %42 = sub i64 %37, %41
  %43 = load ptr, ptr %6, align 8
  %44 = getelementptr inbounds nuw i8, ptr %43, i64 %42
  store ptr %44, ptr %6, align 8
  %45 = load ptr, ptr %6, align 8
  %46 = getelementptr inbounds i8, ptr %45, i64 -8
  call void @llvm.memcpy.p0.p0.i64(ptr align 1 %46, ptr align 8 %8, i64 8, i1 false)
  %47 = load i64, ptr %5, align 8
  %48 = icmp ugt i64 %47, 0
  br i1 %48, label %49, label %54

49:                                               ; preds = %34
  %50 = load ptr, ptr %6, align 8
  %51 = load i64, ptr %7, align 8
  %52 = getelementptr inbounds nuw i8, ptr %50, i64 %51
  %53 = load i64, ptr %5, align 8
  call void @llvm.memset.p0.i64(ptr align 1 %52, i8 0, i64 %53, i1 false)
  br label %54

54:                                               ; preds = %49, %34
  br label %55

55:                                               ; preds = %54, %29
  call void @llvm.lifetime.end.p0(i64 8, ptr %8) #8
  br label %56

56:                                               ; preds = %55, %25, %22, %13
  %57 = load ptr, ptr %6, align 8
  call void @llvm.lifetime.end.p0(i64 8, ptr %7) #8
  call void @llvm.lifetime.end.p0(i64 8, ptr %6) #8
  call void @llvm.lifetime.end.p0(i64 8, ptr %5) #8
  ret ptr %57
}