; Function Attrs: nounwind uwtable
define hidden noalias ptr @SDL_aligned_alloc_REAL(i64 noundef %0, i64 noundef %1) local_unnamed_addr #5 {
  %spec.store.select = tail call i64 @llvm.umax.i64(i64 %0, i64 8)
  %3 = urem i64 %1, %spec.store.select
  %4 = sub i64 %spec.store.select, %3
  %5 = tail call { i64, i1 } @llvm.uadd.with.overflow.i64(i64 %1, i64 %spec.store.select)
  %6 = extractvalue { i64, i1 } %5, 1
  br i1 %6, label %26, label %7

7:                                                ; preds = %2
  %8 = extractvalue { i64, i1 } %5, 0
  %9 = tail call { i64, i1 } @llvm.uadd.with.overflow.i64(i64 %8, i64 8)
  %10 = extractvalue { i64, i1 } %9, 1
  br i1 %10, label %26, label %11

11:                                               ; preds = %7
  %12 = extractvalue { i64, i1 } %9, 0
  %13 = tail call { i64, i1 } @llvm.uadd.with.overflow.i64(i64 %12, i64 %4)
  %14 = extractvalue { i64, i1 } %13, 1
  br i1 %14, label %26, label %15

15:                                               ; preds = %11
  %16 = extractvalue { i64, i1 } %13, 0
  %17 = tail call noalias ptr @SDL_malloc_REAL(i64 noundef %16) #10
  %.not = icmp eq ptr %17, null
  br i1 %.not, label %26, label %18

18:                                               ; preds = %15
  %19 = getelementptr inbounds nuw i8, ptr %17, i64 8
  %20 = ptrtoint ptr %19 to i64
  %21 = urem i64 %20, %spec.store.select
  %22 = sub i64 %spec.store.select, %21
  %23 = getelementptr inbounds nuw i8, ptr %19, i64 %22
  %24 = getelementptr inbounds i8, ptr %23, i64 -8
  store ptr %17, ptr %24, align 1
  %25 = getelementptr inbounds nuw i8, ptr %23, i64 %1
  tail call void @llvm.memset.p0.i64(ptr nonnull align 1 %25, i8 0, i64 %4, i1 false)
  br label %26

26:                                               ; preds = %15, %18, %11, %7, %2
  %.0 = phi ptr [ null, %11 ], [ null, %7 ], [ null, %2 ], [ %23, %18 ], [ null, %15 ]
  ret ptr %.0
}